target datalayout = "e-m:e-p270:32:32-p271:32:32-p272:64:64-i64:64-i128:128-f80:128-n8:16:32:64-S128"
target triple = "x86_64-pc-linux-gnu"

%"class.std::ios_base::Init" = type { i8 }
%struct.XGBAPIErrorEntry = type <{ %"class.std::__cxx11::basic_string", i32, [4 x i8] }>
%"class.std::__cxx11::basic_string" = type { %"struct.std::__cxx11::basic_string<char>::_Alloc_hider", i64, %union.anon }
%"struct.std::__cxx11::basic_string<char>::_Alloc_hider" = type { ptr }
%union.anon = type { i64, [8 x i8] }

$_ZN4dmlc16ThreadLocalStoreI16XGBAPIErrorEntryE3GetEv = comdat any

$_ZN16XGBAPIErrorEntryC2Ev = comdat any

$_ZN16XGBAPIErrorEntryD2Ev = comdat any

$_ZZN4dmlc16ThreadLocalStoreI16XGBAPIErrorEntryE3GetEvE4inst = comdat any

$_ZGVZN4dmlc16ThreadLocalStoreI16XGBAPIErrorEntryE3GetEvE4inst = comdat any

@_ZStL8__ioinit = internal global %"class.std::ios_base::Init" zeroinitializer, align 1
@__dso_handle = external hidden global i8
@_ZZN4dmlc16ThreadLocalStoreI16XGBAPIErrorEntryE3GetEvE4inst = linkonce_odr thread_local global %struct.XGBAPIErrorEntry zeroinitializer, comdat, align 8
@_ZGVZN4dmlc16ThreadLocalStoreI16XGBAPIErrorEntryE3GetEvE4inst = linkonce_odr thread_local global i64 0, comdat, align 8
@llvm.global_ctors = appending global [1 x { i32, ptr, ptr }] [{ i32, ptr, ptr } { i32 65535, ptr @_GLOBAL__sub_I_c_api_error.cc, ptr null }]

; Function Attrs: uwtable
define internal void @__cxx_global_var_init() #0 section ".text.startup" {
  call void @_ZNSt8ios_base4InitC1Ev(ptr noundef nonnull align 1 dereferenceable(1) @_ZStL8__ioinit)
  %1 = call i32 @__cxa_atexit(ptr @_ZNSt8ios_base4InitD1Ev, ptr @_ZStL8__ioinit, ptr @__dso_handle) #3
  ret void
}

declare void @_ZNSt8ios_base4InitC1Ev(ptr noundef nonnull align 1 dereferenceable(1)) unnamed_addr #1

; Function Attrs: nounwind
declare void @_ZNSt8ios_base4InitD1Ev(ptr noundef nonnull align 1 dereferenceable(1)) unnamed_addr #2

; Function Attrs: nounwind
declare i32 @__cxa_atexit(ptr, ptr, ptr) #3

; Function Attrs: mustprogress uwtable
define ptr @XGBGetLastError() #4 {
  %1 = call noundef ptr @_ZN4dmlc16ThreadLocalStoreI16XGBAPIErrorEntryE3GetEv()
  %2 = getelementptr inbounds %struct.XGBAPIErrorEntry, ptr %1, i32 0, i32 0
  %3 = call noundef ptr @_ZNKSt7__cxx1112basic_stringIcSt11char_traitsIcESaIcEE5c_strEv(ptr noundef nonnull align 8 dereferenceable(32) %2) #3
  ret ptr %3
}

; Function Attrs: mustprogress nounwind uwtable
define linkonce_odr noundef ptr @_ZN4dmlc16ThreadLocalStoreI16XGBAPIErrorEntryE3GetEv() #5 comdat align 2 {
  %1 = load i8, ptr @_ZGVZN4dmlc16ThreadLocalStoreI16XGBAPIErrorEntryE3GetEvE4inst, align 8
  %2 = icmp eq i8 %1, 0
  br i1 %2, label %3, label %5, !prof !4

3:                                                ; preds = %0
  call void @_ZN16XGBAPIErrorEntryC2Ev(ptr noundef nonnull align 8 dereferenceable(36) @_ZZN4dmlc16ThreadLocalStoreI16XGBAPIErrorEntryE3GetEvE4inst) #3
  %4 = call i32 @__cxa_thread_atexit(ptr @_ZN16XGBAPIErrorEntryD2Ev, ptr @_ZZN4dmlc16ThreadLocalStoreI16XGBAPIErrorEntryE3GetEvE4inst, ptr @__dso_handle) #3
  store i8 1, ptr @_ZGVZN4dmlc16ThreadLocalStoreI16XGBAPIErrorEntryE3GetEvE4inst, align 8
  br label %5

5:                                                ; preds = %3, %0
  %6 = call align 8 ptr @llvm.threadlocal.address.p0(ptr align 8 @_ZZN4dmlc16ThreadLocalStoreI16XGBAPIErrorEntryE3GetEvE4inst)
  ret ptr %6
}

; Function Attrs: nounwind
declare noundef ptr @_ZNKSt7__cxx1112basic_stringIcSt11char_traitsIcESaIcEE5c_strEv(ptr noundef nonnull align 8 dereferenceable(32)) #2

; Function Attrs: mustprogress uwtable
define void @_Z18XGBAPISetLastErrorPKc(ptr noundef %0) #4 {
  %2 = alloca ptr, align 8
  store ptr %0, ptr %2, align 8
  %3 = load ptr, ptr %2, align 8
  %4 = call noundef ptr @_ZN4dmlc16ThreadLocalStoreI16XGBAPIErrorEntryE3GetEv()
  %5 = getelementptr inbounds %struct.XGBAPIErrorEntry, ptr %4, i32 0, i32 0
  %6 = call noundef nonnull align 8 dereferenceable(32) ptr @_ZNSt7__cxx1112basic_stringIcSt11char_traitsIcESaIcEEaSEPKc(ptr noundef nonnull align 8 dereferenceable(32) %5, ptr noundef %3)
  %7 = call noundef ptr @_ZN4dmlc16ThreadLocalStoreI16XGBAPIErrorEntryE3GetEv()
  %8 = getelementptr inbounds %struct.XGBAPIErrorEntry, ptr %7, i32 0, i32 1
  store i32 -1, ptr %8, align 8
  ret void
}

declare noundef nonnull align 8 dereferenceable(32) ptr @_ZNSt7__cxx1112basic_stringIcSt11char_traitsIcESaIcEEaSEPKc(ptr noundef nonnull align 8 dereferenceable(32), ptr noundef) #1

; Function Attrs: mustprogress uwtable
define i32 @XGBGetLastErrorCode() #4 {
  %1 = call noundef ptr @_ZN4dmlc16ThreadLocalStoreI16XGBAPIErrorEntryE3GetEv()
  %2 = getelementptr inbounds %struct.XGBAPIErrorEntry, ptr %1, i32 0, i32 1
  %3 = load i32, ptr %2, align 8
  ret i32 %3
}

; Function Attrs: mustprogress nounwind uwtable
define linkonce_odr void @_ZN16XGBAPIErrorEntryC2Ev(ptr noundef nonnull align 8 dereferenceable(36) %0) unnamed_addr #5 comdat align 2 {
  %2 = alloca ptr, align 8
  store ptr %0, ptr %2, align 8
  %3 = load ptr, ptr %2, align 8
  %4 = getelementptr inbounds %struct.XGBAPIErrorEntry, ptr %3, i32 0, i32 0
  call void @_ZNSt7__cxx1112basic_stringIcSt11char_traitsIcESaIcEEC1Ev(ptr noundef nonnull align 8 dereferenceable(32) %4) #3
  %5 = getelementptr inbounds %struct.XGBAPIErrorEntry, ptr %3, i32 0, i32 1
  store i32 -1, ptr %5, align 8
  ret void
}

; Function Attrs: mustprogress nounwind uwtable
define linkonce_odr void @_ZN16XGBAPIErrorEntryD2Ev(ptr noundef nonnull align 8 dereferenceable(36) %0) unnamed_addr #5 comdat align 2 {
  %2 = alloca ptr, align 8
  store ptr %0, ptr %2, align 8
  %3 = load ptr, ptr %2, align 8
  %4 = getelementptr inbounds %struct.XGBAPIErrorEntry, ptr %3, i32 0, i32 0
  call void @_ZNSt7__cxx1112basic_stringIcSt11char_traitsIcESaIcEED1Ev(ptr noundef nonnull align 8 dereferenceable(32) %4) #3
  ret void
}

; Function Attrs: nounwind
declare i32 @__cxa_thread_atexit(ptr, ptr, ptr) #3

; Function Attrs: nocallback nofree nosync nounwind speculatable willreturn memory(none)
declare nonnull ptr @llvm.threadlocal.address.p0(ptr nonnull) #6

; Function Attrs: nounwind
declare void @_ZNSt7__cxx1112basic_stringIcSt11char_traitsIcESaIcEEC1Ev(ptr noundef nonnull align 8 dereferenceable(32)) unnamed_addr #2

; Function Attrs: nounwind
declare void @_ZNSt7__cxx1112basic_stringIcSt11char_traitsIcESaIcEED1Ev(ptr noundef nonnull align 8 dereferenceable(32)) unnamed_addr #2

; Function Attrs: uwtable
define internal void @_GLOBAL__sub_I_c_api_error.cc() #0 section ".text.startup" {
  call void @__cxx_global_var_init()
  ret void
}


!llvm.module.flags = !{!0, !1, !2, !3}

!0 = !{i32 1, !"wchar_size", i32 4}
!1 = !{i32 8, !"PIC Level", i32 2}
!2 = !{i32 7, !"uwtable", i32 2}
!3 = !{i32 7, !"frame-pointer", i32 2}
!4 = !{!"branch_weights", i32 1, i32 1023}
